Certificate:
    Data:
        Version: 3 (0x2)
        Serial Number: 4 (0x4)
        Signature Algorithm: sha256WithRSAEncryption
        Issuer: C=DE, ST=BW, L=FDS, O=CampusSchwarzwald, OU=HackTheFab, CN=Test CA
        Validity
            Not Before: Jul 15 14:45:46 2022 GMT
            Not After : Nov 30 14:45:46 2049 GMT
        Subject: C=DE, ST=BW, L=FDS, O=CampusSchwarzwald, OU=GRAFANA, CN=192.168.88.100
        Subject Public Key Info:
            Public Key Algorithm: rsaEncryption
                Public-Key: (2048 bit)
                Modulus:
                    00:ba:c7:40:e7:62:36:ba:c9:1e:99:5f:cd:f1:6a:
                    d7:cd:57:79:f8:45:9b:7a:39:af:a8:53:57:3a:e6:
                    7c:40:28:b8:28:50:4c:e9:67:fd:60:0c:ac:55:6a:
                    1f:7e:fe:da:ea:88:b8:16:9a:de:c3:59:f8:41:de:
                    12:54:08:63:4e:aa:99:ca:e0:a0:48:0e:a0:99:e2:
                    d0:df:f4:55:d8:67:7e:32:6b:c6:14:20:98:3a:0e:
                    12:17:c3:09:f9:6c:dc:e9:cb:0f:a8:48:cd:61:6b:
                    bc:20:10:11:6a:da:2e:59:53:4a:02:b9:b4:86:57:
                    e7:85:d9:94:7c:23:37:a1:67:85:c2:34:79:b5:63:
                    bd:c2:f8:00:d2:f4:9d:ee:b4:53:96:d2:35:0f:de:
                    69:e1:3f:6a:d2:7b:e9:44:ec:82:cd:03:20:65:42:
                    f0:73:eb:bd:4e:e5:77:d3:74:7c:f2:55:02:03:37:
                    1b:b7:53:b5:7f:a8:f3:d1:47:a3:02:07:5a:f3:0a:
                    92:3d:ac:7d:4d:55:ef:24:68:ec:60:f1:13:12:32:
                    66:a8:55:3e:c9:be:ca:40:af:a0:8b:0a:d1:7e:e4:
                    5e:f9:83:f9:74:3f:63:a0:6e:1c:60:43:79:34:85:
                    89:95:3f:50:a0:de:81:58:52:54:a1:53:0a:c7:a2:
                    7f:39
                Exponent: 65537 (0x10001)
        X509v3 extensions:
            X509v3 Subject Key Identifier: 
                47:4F:63:65:69:B2:CC:29:80:25:14:46:D7:59:B0:26:E1:C5:BE:01
            X509v3 Authority Key Identifier: 
                20:49:F7:35:3C:9A:24:DF:91:C1:72:72:83:6A:D6:B3:33:8F:10:92
            X509v3 Basic Constraints: 
                CA:FALSE
            X509v3 Key Usage: 
                Digital Signature, Key Encipherment
            Netscape Cert Type: 
                SSL Client, SSL Server
            X509v3 Extended Key Usage: 
                TLS Web Server Authentication, TLS Web Client Authentication
            Netscape Comment: 
                OpenSSL Generated Certificat
            X509v3 Subject Alternative Name: 
                URI:http://examples.freeopcua.github.io, IP Address:192.168.88.100
    Signature Algorithm: sha256WithRSAEncryption
    Signature Value:
        63:30:36:92:e7:72:43:fc:d8:50:5f:f2:e9:78:0a:c7:02:3b:
        a9:09:7a:1d:07:48:13:b7:d8:b8:d1:73:0c:c6:cd:14:5c:c7:
        14:02:87:8f:3c:41:01:78:5b:1c:05:3f:d3:f5:c3:db:0e:79:
        cc:3a:11:1c:b2:9b:23:b4:bd:86:f5:88:43:d3:b3:f4:3d:8d:
        40:ec:ea:e7:35:9e:d6:ad:4e:b7:a2:ff:ad:73:73:f5:08:79:
        39:da:b2:cc:53:5b:7e:49:85:bb:9f:7d:97:09:84:b2:04:12:
        eb:ed:96:fc:7c:42:88:f0:09:98:b1:af:12:5e:a6:3b:3f:4a:
        9a:b4:3b:ef:d9:53:39:ef:97:64:92:53:80:2e:45:57:5c:a9:
        60:e4:fa:c7:5f:4a:61:e6:20:1b:6c:7a:57:82:79:51:d6:6e:
        e6:f0:fd:c9:22:b3:79:4d:1c:c4:78:41:6e:b7:98:21:df:91:
        01:72:95:c6:ba:1d:cc:88:95:19:79:ad:02:55:71:88:a4:50:
        6c:1f:72:e4:4d:8f:60:b8:f5:1c:52:4e:54:14:91:4d:6d:60:
        fa:4c:3c:94:1e:33:3c:99:58:9e:d6:be:93:74:3e:1b:2a:a7:
        9e:7b:7c:14:96:31:e3:1e:89:c7:2b:52:ac:24:e3:ed:52:61:
        40:89:b4:44
-----BEGIN CERTIFICATE-----
MIIERjCCAy6gAwIBAgIBBDANBgkqhkiG9w0BAQsFADBrMQswCQYDVQQGEwJERTEL
MAkGA1UECAwCQlcxDDAKBgNVBAcMA0ZEUzEaMBgGA1UECgwRQ2FtcHVzU2Nod2Fy
endhbGQxEzARBgNVBAsMCkhhY2tUaGVGYWIxEDAOBgNVBAMMB1Rlc3QgQ0EwHhcN
MjIwNzE1MTQ0NTQ2WhcNNDkxMTMwMTQ0NTQ2WjBvMQswCQYDVQQGEwJERTELMAkG
A1UECAwCQlcxDDAKBgNVBAcMA0ZEUzEaMBgGA1UECgwRQ2FtcHVzU2Nod2Fyendh
bGQxEDAOBgNVBAsMB0dSQUZBTkExFzAVBgNVBAMMDjE5Mi4xNjguODguMTAwMIIB
IjANBgkqhkiG9w0BAQEFAAOCAQ8AMIIBCgKCAQEAusdA52I2uskemV/N8WrXzVd5
+EWbejmvqFNXOuZ8QCi4KFBM6Wf9YAysVWoffv7a6oi4Fprew1n4Qd4SVAhjTqqZ
yuCgSA6gmeLQ3/RV2Gd+MmvGFCCYOg4SF8MJ+Wzc6csPqEjNYWu8IBARatouWVNK
Arm0hlfnhdmUfCM3oWeFwjR5tWO9wvgA0vSd7rRTltI1D95p4T9q0nvpROyCzQMg
ZULwc+u9TuV303R88lUCAzcbt1O1f6jz0UejAgda8wqSPax9TVXvJGjsYPETEjJm
qFU+yb7KQK+giwrRfuRe+YP5dD9joG4cYEN5NIWJlT9QoN6BWFJUoVMKx6J/OQID
AQABo4HwMIHtMB0GA1UdDgQWBBRHT2NlabLMKYAlFEbXWbAm4cW+ATAfBgNVHSME
GDAWgBQgSfc1PJok35HBcnKDatazM48QkjAJBgNVHRMEAjAAMAsGA1UdDwQEAwIF
oDARBglghkgBhvhCAQEEBAMCBsAwHQYDVR0lBBYwFAYIKwYBBQUHAwEGCCsGAQUF
BwMCMCsGCWCGSAGG+EIBDQQeFhxPcGVuU1NMIEdlbmVyYXRlZCBDZXJ0aWZpY2F0
MDQGA1UdEQQtMCuGI2h0dHA6Ly9leGFtcGxlcy5mcmVlb3BjdWEuZ2l0aHViLmlv
hwTAqFhkMA0GCSqGSIb3DQEBCwUAA4IBAQBjMDaS53JD/NhQX/LpeArHAjupCXod
B0gTt9i40XMMxs0UXMcUAoePPEEBeFscBT/T9cPbDnnMOhEcspsjtL2G9YhD07P0
PY1A7OrnNZ7WrU63ov+tc3P1CHk52rLMU1t+SYW7n32XCYSyBBLr7Zb8fEKI8AmY
sa8SXqY7P0qatDvv2VM575dkklOALkVXXKlg5PrHX0ph5iAbbHpXgnlR1m7m8P3J
IrN5TRzEeEFut5gh35EBcpXGuh3MiJUZea0CVXGIpFBsH3LkTY9guPUcUk5UFJFN
bWD6TDyUHjM8mVie1r6TdD4bKqeee3wUljHjHonHK1KsJOPtUmFAibRE
-----END CERTIFICATE-----
-----BEGIN CERTIFICATE-----
MIIDxDCCAqygAwIBAgIUUYNYRGz0zH1j7LaCQguxI76RuucwDQYJKoZIhvcNAQEL
BQAwazELMAkGA1UEBhMCREUxCzAJBgNVBAgMAkJXMQwwCgYDVQQHDANGRFMxGjAY
BgNVBAoMEUNhbXB1c1NjaHdhcnp3YWxkMRMwEQYDVQQLDApIYWNrVGhlRmFiMRAw
DgYDVQQDDAdUZXN0IENBMB4XDTIyMDcxNTE0NDUzN1oXDTMyMDUyMzE0NDUzN1ow
azELMAkGA1UEBhMCREUxCzAJBgNVBAgMAkJXMQwwCgYDVQQHDANGRFMxGjAYBgNV
BAoMEUNhbXB1c1NjaHdhcnp3YWxkMRMwEQYDVQQLDApIYWNrVGhlRmFiMRAwDgYD
VQQDDAdUZXN0IENBMIIBIjANBgkqhkiG9w0BAQEFAAOCAQ8AMIIBCgKCAQEArsVy
Ulz0XHOtdnTm00HIVVD4glVXGQIzIMT4nE4TO8jNzodtE/2PBvCKepRwlETIds52
CvYia0lkdvrLzDJgjBUIJrXMXyuyWcTPocsfUFc3SehMpo0Lsdv89yJndb3NiM50
vLM77rExUumJU5EM8BaMS3QyBaQesXNzBkDLnApIR8pv9HDp/KAozEpLFCUnyFIe
snQ1xSgSnOTr2+hZVyEKUNSz1AXfG4wbfZRIo3l53UmnQdFYH+mBSEx5Ytk0ECex
+3lKeatP1BI8ii+v0nxoB780TxIRP7WrM2CK02tdVMsQdmDeO9vCYfCoZphcAjoW
WzLp/WoF7lmmtmE6IwIDAQABo2AwXjAdBgNVHQ4EFgQUIEn3NTyaJN+RwXJyg2rW
szOPEJIwHwYDVR0jBBgwFoAUIEn3NTyaJN+RwXJyg2rWszOPEJIwDwYDVR0TAQH/
BAUwAwEB/zALBgNVHQ8EBAMCAQYwDQYJKoZIhvcNAQELBQADggEBACusnWR/uj1j
ZN95BFTUsZcqdehWHI/ML61V94xR6Nz0MY7xI5mHkgqBeu34Rd1KpaASrYDXGRk/
XHi7A6lLNN0zlS0uZ1BYNEUQ6JBXbey1WVVnieX0nYG8Tziofl+tz/XVZD+t7+oi
NPXkZuLbxE4ZxS0biHsX230c0N+n2YuFhtvgBMEbmVVwMkwzE8BSoUrAFGTdicRY
SBhZ930cGKL502EN0LuKxUl/blWMB06pvB6I9ZkNaTexXzJ/iymqBOY/uxmPiAFC
q4ElAfeO0f+Kmzj13Up20U2+KZj3Tw86K/uy8xV286/zSW5UBszj3nVYjc2DqaRd
vPeP5CB6RW8=
-----END CERTIFICATE-----
