Certificate:
    Data:
        Version: 3 (0x2)
        Serial Number: 5 (0x5)
        Signature Algorithm: sha256WithRSAEncryption
        Issuer: C=DE, ST=BW, L=FDS, O=CampusSchwarzwald, OU=HackTheFab, CN=Test CA
        Validity
            Not Before: Jul 15 14:45:47 2022 GMT
            Not After : Nov 30 14:45:47 2049 GMT
        Subject: C=DE, ST=BW, L=FDS, O=CampusSchwarzwald, OU=INFLUXDB, CN=192.168.88.100
        Subject Public Key Info:
            Public Key Algorithm: rsaEncryption
                Public-Key: (2048 bit)
                Modulus:
                    00:ad:67:32:7f:3e:45:e5:07:ce:ee:e4:ea:8b:ae:
                    21:03:04:cb:04:cb:8d:68:b7:33:8b:1a:3f:b9:bf:
                    3d:0a:24:90:43:11:6d:f5:c1:9a:cb:9c:70:dd:58:
                    ce:b2:2a:24:a2:9d:b2:26:e2:24:d3:f4:32:d7:f8:
                    7d:1d:0d:d4:41:16:fb:fb:4f:03:a4:06:bc:6f:4e:
                    69:d9:4f:64:19:89:55:e3:73:7d:cf:ee:ce:7c:d9:
                    09:fb:27:36:02:89:fd:e4:22:50:53:c8:22:9c:ed:
                    7c:8d:31:ae:a5:d0:7f:45:ac:0e:8a:8c:52:02:34:
                    c0:b5:7f:2b:2b:cc:ea:b9:02:74:76:1d:ba:94:c9:
                    65:46:c6:ad:3c:f0:0c:7b:0e:8d:d6:2a:99:d1:1d:
                    a5:fd:a5:a3:dd:70:cc:ab:a9:c2:49:ab:fa:08:9b:
                    59:bd:63:b3:1f:f0:8c:30:e0:f4:0a:f1:e2:a4:2e:
                    44:bf:f4:0b:e7:68:0c:4e:27:e8:33:11:5b:9a:bb:
                    db:b3:a5:31:8a:be:f3:c9:af:01:d1:cc:73:9b:f6:
                    03:87:75:32:32:65:9a:a4:92:17:db:62:30:ca:ad:
                    24:d2:1d:3c:16:1d:1e:85:d4:ba:5f:a4:d8:62:14:
                    a5:3a:dc:76:b3:ab:6f:c4:39:a9:5a:75:df:6a:04:
                    aa:b7
                Exponent: 65537 (0x10001)
        X509v3 extensions:
            X509v3 Subject Key Identifier: 
                67:ED:75:63:15:19:83:F8:01:20:D4:81:06:35:B1:67:72:81:54:83
            X509v3 Authority Key Identifier: 
                20:49:F7:35:3C:9A:24:DF:91:C1:72:72:83:6A:D6:B3:33:8F:10:92
            X509v3 Basic Constraints: 
                CA:FALSE
            X509v3 Key Usage: 
                Digital Signature, Key Encipherment
            Netscape Cert Type: 
                SSL Client, SSL Server
            X509v3 Extended Key Usage: 
                TLS Web Server Authentication, TLS Web Client Authentication
            Netscape Comment: 
                OpenSSL Generated Certificat
            X509v3 Subject Alternative Name: 
                URI:http://examples.freeopcua.github.io, IP Address:192.168.88.100
    Signature Algorithm: sha256WithRSAEncryption
    Signature Value:
        23:20:ad:53:1e:09:9e:5d:2c:4d:5d:f6:28:cc:f1:1a:5d:0d:
        0f:c2:d0:64:b0:08:12:34:f6:ba:fd:63:0a:46:e7:77:3b:21:
        bd:57:80:e7:28:03:8e:d3:10:80:ed:0b:bd:08:29:cc:0d:57:
        08:a5:a5:a2:ce:58:e5:b3:12:60:e0:26:82:de:dc:eb:ed:a7:
        94:b9:4a:42:57:f0:27:d2:94:d6:52:73:d3:d9:5c:a3:37:c8:
        3d:84:e9:cb:7f:70:34:56:53:95:22:01:23:4c:7c:2c:f3:40:
        b9:b4:ed:35:8d:94:09:0f:10:09:38:7d:74:74:de:25:7c:09:
        2f:69:b8:1f:91:88:29:6c:26:96:8b:07:76:89:3c:e6:b0:e1:
        de:f6:68:47:65:07:56:c6:3d:fb:7a:c3:5a:21:f5:50:a2:65:
        f3:01:bb:a1:8f:96:05:79:81:c1:c9:a3:03:b5:20:0a:51:f1:
        48:d3:41:87:34:a9:f1:81:71:9d:bb:7f:89:fa:b1:f0:fb:9e:
        5c:8a:70:9e:a7:b4:49:a5:e5:75:05:3b:33:d5:0f:26:ce:f2:
        98:2d:1f:26:ba:5b:20:c9:41:51:fa:32:50:74:18:10:60:22:
        12:fa:04:6b:d2:b2:f0:c6:ca:a0:e6:82:ea:9e:e8:6d:f6:1b:
        94:56:d8:a4
-----BEGIN CERTIFICATE-----
MIIERzCCAy+gAwIBAgIBBTANBgkqhkiG9w0BAQsFADBrMQswCQYDVQQGEwJERTEL
MAkGA1UECAwCQlcxDDAKBgNVBAcMA0ZEUzEaMBgGA1UECgwRQ2FtcHVzU2Nod2Fy
endhbGQxEzARBgNVBAsMCkhhY2tUaGVGYWIxEDAOBgNVBAMMB1Rlc3QgQ0EwHhcN
MjIwNzE1MTQ0NTQ3WhcNNDkxMTMwMTQ0NTQ3WjBwMQswCQYDVQQGEwJERTELMAkG
A1UECAwCQlcxDDAKBgNVBAcMA0ZEUzEaMBgGA1UECgwRQ2FtcHVzU2Nod2Fyendh
bGQxETAPBgNVBAsMCElORkxVWERCMRcwFQYDVQQDDA4xOTIuMTY4Ljg4LjEwMDCC
ASIwDQYJKoZIhvcNAQEBBQADggEPADCCAQoCggEBAK1nMn8+ReUHzu7k6ouuIQME
ywTLjWi3M4saP7m/PQokkEMRbfXBmsuccN1YzrIqJKKdsibiJNP0Mtf4fR0N1EEW
+/tPA6QGvG9OadlPZBmJVeNzfc/uznzZCfsnNgKJ/eQiUFPIIpztfI0xrqXQf0Ws
DoqMUgI0wLV/KyvM6rkCdHYdupTJZUbGrTzwDHsOjdYqmdEdpf2lo91wzKupwkmr
+gibWb1jsx/wjDDg9Arx4qQuRL/0C+doDE4n6DMRW5q727OlMYq+88mvAdHMc5v2
A4d1MjJlmqSSF9tiMMqtJNIdPBYdHoXUul+k2GIUpTrcdrOrb8Q5qVp132oEqrcC
AwEAAaOB8DCB7TAdBgNVHQ4EFgQUZ+11YxUZg/gBINSBBjWxZ3KBVIMwHwYDVR0j
BBgwFoAUIEn3NTyaJN+RwXJyg2rWszOPEJIwCQYDVR0TBAIwADALBgNVHQ8EBAMC
BaAwEQYJYIZIAYb4QgEBBAQDAgbAMB0GA1UdJQQWMBQGCCsGAQUFBwMBBggrBgEF
BQcDAjArBglghkgBhvhCAQ0EHhYcT3BlblNTTCBHZW5lcmF0ZWQgQ2VydGlmaWNh
dDA0BgNVHREELTArhiNodHRwOi8vZXhhbXBsZXMuZnJlZW9wY3VhLmdpdGh1Yi5p
b4cEwKhYZDANBgkqhkiG9w0BAQsFAAOCAQEAIyCtUx4Jnl0sTV32KMzxGl0ND8LQ
ZLAIEjT2uv1jCkbndzshvVeA5ygDjtMQgO0LvQgpzA1XCKWlos5Y5bMSYOAmgt7c
6+2nlLlKQlfwJ9KU1lJz09lcozfIPYTpy39wNFZTlSIBI0x8LPNAubTtNY2UCQ8Q
CTh9dHTeJXwJL2m4H5GIKWwmlosHdok85rDh3vZoR2UHVsY9+3rDWiH1UKJl8wG7
oY+WBXmBwcmjA7UgClHxSNNBhzSp8YFxnbt/ifqx8PueXIpwnqe0SaXldQU7M9UP
Js7ymC0fJrpbIMlBUfoyUHQYEGAiEvoEa9Ky8MbKoOaC6p7obfYblFbYpA==
-----END CERTIFICATE-----
-----BEGIN CERTIFICATE-----
MIIDxDCCAqygAwIBAgIUUYNYRGz0zH1j7LaCQguxI76RuucwDQYJKoZIhvcNAQEL
BQAwazELMAkGA1UEBhMCREUxCzAJBgNVBAgMAkJXMQwwCgYDVQQHDANGRFMxGjAY
BgNVBAoMEUNhbXB1c1NjaHdhcnp3YWxkMRMwEQYDVQQLDApIYWNrVGhlRmFiMRAw
DgYDVQQDDAdUZXN0IENBMB4XDTIyMDcxNTE0NDUzN1oXDTMyMDUyMzE0NDUzN1ow
azELMAkGA1UEBhMCREUxCzAJBgNVBAgMAkJXMQwwCgYDVQQHDANGRFMxGjAYBgNV
BAoMEUNhbXB1c1NjaHdhcnp3YWxkMRMwEQYDVQQLDApIYWNrVGhlRmFiMRAwDgYD
VQQDDAdUZXN0IENBMIIBIjANBgkqhkiG9w0BAQEFAAOCAQ8AMIIBCgKCAQEArsVy
Ulz0XHOtdnTm00HIVVD4glVXGQIzIMT4nE4TO8jNzodtE/2PBvCKepRwlETIds52
CvYia0lkdvrLzDJgjBUIJrXMXyuyWcTPocsfUFc3SehMpo0Lsdv89yJndb3NiM50
vLM77rExUumJU5EM8BaMS3QyBaQesXNzBkDLnApIR8pv9HDp/KAozEpLFCUnyFIe
snQ1xSgSnOTr2+hZVyEKUNSz1AXfG4wbfZRIo3l53UmnQdFYH+mBSEx5Ytk0ECex
+3lKeatP1BI8ii+v0nxoB780TxIRP7WrM2CK02tdVMsQdmDeO9vCYfCoZphcAjoW
WzLp/WoF7lmmtmE6IwIDAQABo2AwXjAdBgNVHQ4EFgQUIEn3NTyaJN+RwXJyg2rW
szOPEJIwHwYDVR0jBBgwFoAUIEn3NTyaJN+RwXJyg2rWszOPEJIwDwYDVR0TAQH/
BAUwAwEB/zALBgNVHQ8EBAMCAQYwDQYJKoZIhvcNAQELBQADggEBACusnWR/uj1j
ZN95BFTUsZcqdehWHI/ML61V94xR6Nz0MY7xI5mHkgqBeu34Rd1KpaASrYDXGRk/
XHi7A6lLNN0zlS0uZ1BYNEUQ6JBXbey1WVVnieX0nYG8Tziofl+tz/XVZD+t7+oi
NPXkZuLbxE4ZxS0biHsX230c0N+n2YuFhtvgBMEbmVVwMkwzE8BSoUrAFGTdicRY
SBhZ930cGKL502EN0LuKxUl/blWMB06pvB6I9ZkNaTexXzJ/iymqBOY/uxmPiAFC
q4ElAfeO0f+Kmzj13Up20U2+KZj3Tw86K/uy8xV286/zSW5UBszj3nVYjc2DqaRd
vPeP5CB6RW8=
-----END CERTIFICATE-----
