Certificate:
    Data:
        Version: 3 (0x2)
        Serial Number: 2 (0x2)
        Signature Algorithm: sha256WithRSAEncryption
        Issuer: C=DE, ST=BW, L=FDS, O=CampusSchwarzwald, OU=HackTheFab, CN=Test CA
        Validity
            Not Before: Jul 15 14:45:42 2022 GMT
            Not After : Nov 30 14:45:42 2049 GMT
        Subject: C=DE, ST=BW, L=FDS, O=CampusSchwarzwald, OU=MQTTCLIENT, CN=192.168.88.102
        Subject Public Key Info:
            Public Key Algorithm: rsaEncryption
                Public-Key: (2048 bit)
                Modulus:
                    00:9b:34:53:1a:6a:5c:b8:65:72:7a:92:34:9f:59:
                    80:ed:81:e1:b0:f4:ee:b2:29:0f:04:65:26:84:ee:
                    db:e9:33:18:52:6e:19:ae:c7:c4:ce:cb:f0:5a:d4:
                    94:c9:66:72:a0:e7:db:d4:5a:47:86:66:0d:0a:d4:
                    96:28:9c:e5:75:e4:a2:05:a5:86:54:54:b4:4f:82:
                    bb:7c:8a:ef:c3:9d:8e:fd:b8:1f:66:19:66:0c:53:
                    ce:08:25:5c:a6:22:65:ee:68:03:a9:84:90:67:0f:
                    70:8d:26:ee:50:34:ea:6a:41:56:54:04:ad:b1:4e:
                    a3:c5:5a:9d:56:aa:03:9d:60:b3:13:85:a6:b0:7a:
                    09:c9:84:c6:9b:2c:03:02:80:d0:13:95:5a:7a:b9:
                    b0:73:e9:dc:44:ba:fd:46:3a:b8:f3:73:6d:cf:d0:
                    cc:e0:d0:31:43:69:bb:25:1d:54:3d:34:f7:f1:c6:
                    e9:11:ab:9d:84:ef:cc:c5:56:4b:2c:12:0a:05:a4:
                    4f:5d:3d:d7:fe:8b:49:17:77:e6:32:9e:30:2f:4f:
                    6e:9c:6a:0f:1e:1c:57:a1:3d:61:f8:01:93:71:57:
                    d6:25:82:27:d7:1c:74:91:67:4d:1b:17:64:5a:6d:
                    d5:62:e5:f0:61:31:37:d3:4c:95:5f:51:09:d8:1c:
                    4e:bb
                Exponent: 65537 (0x10001)
        X509v3 extensions:
            X509v3 Subject Key Identifier: 
                5E:52:CC:46:5D:12:9E:82:6C:92:E8:A1:0D:9A:E5:84:90:0D:B4:03
            X509v3 Authority Key Identifier: 
                20:49:F7:35:3C:9A:24:DF:91:C1:72:72:83:6A:D6:B3:33:8F:10:92
            X509v3 Basic Constraints: 
                CA:FALSE
            X509v3 Key Usage: 
                Digital Signature, Key Encipherment
            Netscape Cert Type: 
                SSL Client, SSL Server
            X509v3 Extended Key Usage: 
                TLS Web Server Authentication, TLS Web Client Authentication
            Netscape Comment: 
                OpenSSL Generated Certificat
            X509v3 Subject Alternative Name: 
                URI:http://examples.freeopcua.github.io, IP Address:192.168.88.102
    Signature Algorithm: sha256WithRSAEncryption
    Signature Value:
        28:8c:aa:8d:ff:9d:b4:2c:bc:37:71:ce:98:17:3f:29:f4:1a:
        d4:8f:3c:fc:67:a1:8e:1b:17:67:23:c4:17:40:4f:96:42:a0:
        93:12:59:c8:7c:52:3c:f9:43:b6:b9:a5:ac:de:11:fa:66:07:
        2a:f9:79:f1:e8:a6:83:c4:54:87:4e:49:a9:9e:6d:a9:46:68:
        8a:d6:fa:40:ed:28:26:da:80:3f:73:95:ce:8c:f8:59:c6:df:
        84:ef:d3:97:c4:76:06:4c:6a:fc:a9:dc:13:fb:bc:15:5c:3e:
        65:88:7e:7a:84:48:34:ee:e5:c7:77:26:9a:32:04:00:a7:bf:
        32:55:45:86:75:0c:2a:1f:8d:11:21:43:a2:be:29:c0:48:f7:
        e4:1f:a2:c4:19:d4:f5:f5:13:e3:bb:ea:3c:b6:68:00:cb:09:
        83:07:ca:7c:61:5f:fc:1e:74:a8:c8:b2:76:fb:2b:ab:4b:56:
        17:60:3d:cc:09:af:0b:a3:00:53:e3:69:a4:4b:04:ae:04:69:
        ad:cc:bd:15:1f:54:c8:3f:79:94:bb:14:76:18:d5:40:7a:e4:
        15:44:09:a3:3a:08:21:57:28:f3:ed:72:fc:98:3a:79:e1:f8:
        1a:04:dc:eb:f2:cf:fb:b4:45:09:38:7d:07:90:2c:10:67:ea:
        75:e5:3a:70
-----BEGIN CERTIFICATE-----
MIIESTCCAzGgAwIBAgIBAjANBgkqhkiG9w0BAQsFADBrMQswCQYDVQQGEwJERTEL
MAkGA1UECAwCQlcxDDAKBgNVBAcMA0ZEUzEaMBgGA1UECgwRQ2FtcHVzU2Nod2Fy
endhbGQxEzARBgNVBAsMCkhhY2tUaGVGYWIxEDAOBgNVBAMMB1Rlc3QgQ0EwHhcN
MjIwNzE1MTQ0NTQyWhcNNDkxMTMwMTQ0NTQyWjByMQswCQYDVQQGEwJERTELMAkG
A1UECAwCQlcxDDAKBgNVBAcMA0ZEUzEaMBgGA1UECgwRQ2FtcHVzU2Nod2Fyendh
bGQxEzARBgNVBAsMCk1RVFRDTElFTlQxFzAVBgNVBAMMDjE5Mi4xNjguODguMTAy
MIIBIjANBgkqhkiG9w0BAQEFAAOCAQ8AMIIBCgKCAQEAmzRTGmpcuGVyepI0n1mA
7YHhsPTusikPBGUmhO7b6TMYUm4ZrsfEzsvwWtSUyWZyoOfb1FpHhmYNCtSWKJzl
deSiBaWGVFS0T4K7fIrvw52O/bgfZhlmDFPOCCVcpiJl7mgDqYSQZw9wjSbuUDTq
akFWVAStsU6jxVqdVqoDnWCzE4WmsHoJyYTGmywDAoDQE5Vaermwc+ncRLr9Rjq4
83Ntz9DM4NAxQ2m7JR1UPTT38cbpEaudhO/MxVZLLBIKBaRPXT3X/otJF3fmMp4w
L09unGoPHhxXoT1h+AGTcVfWJYIn1xx0kWdNGxdkWm3VYuXwYTE300yVX1EJ2BxO
uwIDAQABo4HwMIHtMB0GA1UdDgQWBBReUsxGXRKegmyS6KENmuWEkA20AzAfBgNV
HSMEGDAWgBQgSfc1PJok35HBcnKDatazM48QkjAJBgNVHRMEAjAAMAsGA1UdDwQE
AwIFoDARBglghkgBhvhCAQEEBAMCBsAwHQYDVR0lBBYwFAYIKwYBBQUHAwEGCCsG
AQUFBwMCMCsGCWCGSAGG+EIBDQQeFhxPcGVuU1NMIEdlbmVyYXRlZCBDZXJ0aWZp
Y2F0MDQGA1UdEQQtMCuGI2h0dHA6Ly9leGFtcGxlcy5mcmVlb3BjdWEuZ2l0aHVi
LmlvhwTAqFhmMA0GCSqGSIb3DQEBCwUAA4IBAQAojKqN/520LLw3cc6YFz8p9BrU
jzz8Z6GOGxdnI8QXQE+WQqCTElnIfFI8+UO2uaWs3hH6Zgcq+Xnx6KaDxFSHTkmp
nm2pRmiK1vpA7Sgm2oA/c5XOjPhZxt+E79OXxHYGTGr8qdwT+7wVXD5liH56hEg0
7uXHdyaaMgQAp78yVUWGdQwqH40RIUOivinASPfkH6LEGdT19RPju+o8tmgAywmD
B8p8YV/8HnSoyLJ2+yurS1YXYD3MCa8LowBT42mkSwSuBGmtzL0VH1TIP3mUuxR2
GNVAeuQVRAmjOgghVyjz7XL8mDp54fgaBNzr8s/7tEUJOH0HkCwQZ+p15Tpw
-----END CERTIFICATE-----
-----BEGIN CERTIFICATE-----
MIIDxDCCAqygAwIBAgIUUYNYRGz0zH1j7LaCQguxI76RuucwDQYJKoZIhvcNAQEL
BQAwazELMAkGA1UEBhMCREUxCzAJBgNVBAgMAkJXMQwwCgYDVQQHDANGRFMxGjAY
BgNVBAoMEUNhbXB1c1NjaHdhcnp3YWxkMRMwEQYDVQQLDApIYWNrVGhlRmFiMRAw
DgYDVQQDDAdUZXN0IENBMB4XDTIyMDcxNTE0NDUzN1oXDTMyMDUyMzE0NDUzN1ow
azELMAkGA1UEBhMCREUxCzAJBgNVBAgMAkJXMQwwCgYDVQQHDANGRFMxGjAYBgNV
BAoMEUNhbXB1c1NjaHdhcnp3YWxkMRMwEQYDVQQLDApIYWNrVGhlRmFiMRAwDgYD
VQQDDAdUZXN0IENBMIIBIjANBgkqhkiG9w0BAQEFAAOCAQ8AMIIBCgKCAQEArsVy
Ulz0XHOtdnTm00HIVVD4glVXGQIzIMT4nE4TO8jNzodtE/2PBvCKepRwlETIds52
CvYia0lkdvrLzDJgjBUIJrXMXyuyWcTPocsfUFc3SehMpo0Lsdv89yJndb3NiM50
vLM77rExUumJU5EM8BaMS3QyBaQesXNzBkDLnApIR8pv9HDp/KAozEpLFCUnyFIe
snQ1xSgSnOTr2+hZVyEKUNSz1AXfG4wbfZRIo3l53UmnQdFYH+mBSEx5Ytk0ECex
+3lKeatP1BI8ii+v0nxoB780TxIRP7WrM2CK02tdVMsQdmDeO9vCYfCoZphcAjoW
WzLp/WoF7lmmtmE6IwIDAQABo2AwXjAdBgNVHQ4EFgQUIEn3NTyaJN+RwXJyg2rW
szOPEJIwHwYDVR0jBBgwFoAUIEn3NTyaJN+RwXJyg2rWszOPEJIwDwYDVR0TAQH/
BAUwAwEB/zALBgNVHQ8EBAMCAQYwDQYJKoZIhvcNAQELBQADggEBACusnWR/uj1j
ZN95BFTUsZcqdehWHI/ML61V94xR6Nz0MY7xI5mHkgqBeu34Rd1KpaASrYDXGRk/
XHi7A6lLNN0zlS0uZ1BYNEUQ6JBXbey1WVVnieX0nYG8Tziofl+tz/XVZD+t7+oi
NPXkZuLbxE4ZxS0biHsX230c0N+n2YuFhtvgBMEbmVVwMkwzE8BSoUrAFGTdicRY
SBhZ930cGKL502EN0LuKxUl/blWMB06pvB6I9ZkNaTexXzJ/iymqBOY/uxmPiAFC
q4ElAfeO0f+Kmzj13Up20U2+KZj3Tw86K/uy8xV286/zSW5UBszj3nVYjc2DqaRd
vPeP5CB6RW8=
-----END CERTIFICATE-----
