Certificate:
    Data:
        Version: 3 (0x2)
        Serial Number: 3 (0x3)
        Signature Algorithm: sha256WithRSAEncryption
        Issuer: C=DE, ST=BW, L=FDS, O=CampusSchwarzwald, OU=HackTheFab, CN=Test CA
        Validity
            Not Before: Jul 15 14:45:44 2022 GMT
            Not After : Nov 30 14:45:44 2049 GMT
        Subject: C=DE, ST=BW, L=FDS, O=CampusSchwarzwald, OU=MQTTSERVER, CN=192.168.88.100
        Subject Public Key Info:
            Public Key Algorithm: rsaEncryption
                Public-Key: (2048 bit)
                Modulus:
                    00:b2:5e:9e:04:74:7e:71:d9:88:91:e2:31:21:2c:
                    dc:6e:5d:5d:90:e9:47:f0:17:fe:3b:02:92:ca:aa:
                    9c:f5:c1:10:b0:78:5a:6e:ae:50:f8:2b:9a:fc:5d:
                    e7:07:eb:01:f7:1a:46:4c:c5:45:a0:d3:9e:76:ad:
                    52:46:62:bf:92:42:12:ca:1f:dc:d2:22:a0:43:fc:
                    3d:c1:d0:cd:72:26:a8:61:50:57:a2:f5:a3:6f:3d:
                    93:e3:67:10:f5:7e:a7:0a:5d:97:31:98:bc:1a:54:
                    d4:69:08:1f:e5:ac:47:e9:18:13:73:38:cc:6c:5f:
                    48:cf:c6:9f:31:b8:7b:49:8d:88:ba:4c:31:91:61:
                    31:22:19:3b:00:f7:a5:e4:20:ce:f3:a0:d6:81:0e:
                    7d:90:f6:0e:47:1e:b5:e9:f6:20:c9:5f:27:f3:bb:
                    a2:ac:dc:cc:f5:9d:9f:ce:62:0f:80:9b:0d:05:a5:
                    28:90:7e:9f:38:ea:e3:d6:7f:52:42:8e:62:48:ba:
                    b7:28:0b:9e:16:34:c9:8f:fd:49:c7:13:47:06:3c:
                    4e:ef:22:c9:37:b7:8d:b7:fe:08:ea:87:6a:7a:18:
                    e8:d4:70:98:92:a7:6c:db:41:90:5c:0a:fe:80:7c:
                    82:7d:e2:0d:6f:d5:e7:ee:65:23:54:ca:dc:c4:74:
                    ad:63
                Exponent: 65537 (0x10001)
        X509v3 extensions:
            X509v3 Subject Key Identifier: 
                02:2C:D9:C9:D9:12:81:58:08:E9:2C:6F:FC:16:87:51:9B:90:67:07
            X509v3 Authority Key Identifier: 
                20:49:F7:35:3C:9A:24:DF:91:C1:72:72:83:6A:D6:B3:33:8F:10:92
            X509v3 Basic Constraints: 
                CA:FALSE
            X509v3 Key Usage: 
                Digital Signature, Key Encipherment
            Netscape Cert Type: 
                SSL Client, SSL Server
            X509v3 Extended Key Usage: 
                TLS Web Server Authentication, TLS Web Client Authentication
            Netscape Comment: 
                OpenSSL Generated Certificat
            X509v3 Subject Alternative Name: 
                URI:http://examples.freeopcua.github.io, IP Address:192.168.88.100
    Signature Algorithm: sha256WithRSAEncryption
    Signature Value:
        11:82:b4:56:7f:d5:5f:49:08:31:84:99:2d:4a:cc:fc:99:fd:
        d7:7e:90:fb:81:da:2b:1b:60:90:26:37:62:02:b2:04:50:2a:
        d1:00:7d:60:21:9a:dc:ae:3a:41:e8:f6:f9:45:5f:62:5e:62:
        01:36:ba:da:cf:6e:ac:66:a6:99:0d:cc:47:bd:65:22:65:4f:
        e4:92:b7:78:f6:55:6f:56:ad:fd:01:87:ab:5e:68:26:61:64:
        49:67:10:26:e3:b0:e8:e5:e1:15:92:8f:51:61:d6:47:2a:ca:
        08:3b:7a:ab:e1:87:86:67:26:9a:63:9f:53:14:6d:cf:e9:5b:
        d0:9a:5b:cb:dc:b2:cd:8f:b7:00:ee:34:24:8c:b7:4a:d7:73:
        2f:73:af:33:d5:d6:78:8a:2e:54:40:0a:68:1c:3c:2e:8d:f6:
        27:91:d5:51:9e:a5:42:b3:17:7d:66:af:23:dd:65:6a:c1:b8:
        88:3b:a0:12:ba:93:85:b4:60:95:cd:9d:f9:b7:23:39:ff:18:
        14:83:36:ac:eb:9f:22:f6:1a:9c:eb:83:04:b1:8a:1d:3c:3d:
        bc:1b:da:4d:2a:20:34:fe:5e:d5:e6:38:24:e9:d2:34:e3:d7:
        5e:91:13:ee:b8:9f:53:f2:2b:52:15:98:b5:cc:08:a6:c9:e0:
        95:d2:bb:10
-----BEGIN CERTIFICATE-----
MIIESTCCAzGgAwIBAgIBAzANBgkqhkiG9w0BAQsFADBrMQswCQYDVQQGEwJERTEL
MAkGA1UECAwCQlcxDDAKBgNVBAcMA0ZEUzEaMBgGA1UECgwRQ2FtcHVzU2Nod2Fy
endhbGQxEzARBgNVBAsMCkhhY2tUaGVGYWIxEDAOBgNVBAMMB1Rlc3QgQ0EwHhcN
MjIwNzE1MTQ0NTQ0WhcNNDkxMTMwMTQ0NTQ0WjByMQswCQYDVQQGEwJERTELMAkG
A1UECAwCQlcxDDAKBgNVBAcMA0ZEUzEaMBgGA1UECgwRQ2FtcHVzU2Nod2Fyendh
bGQxEzARBgNVBAsMCk1RVFRTRVJWRVIxFzAVBgNVBAMMDjE5Mi4xNjguODguMTAw
MIIBIjANBgkqhkiG9w0BAQEFAAOCAQ8AMIIBCgKCAQEAsl6eBHR+cdmIkeIxISzc
bl1dkOlH8Bf+OwKSyqqc9cEQsHhabq5Q+Cua/F3nB+sB9xpGTMVFoNOedq1SRmK/
kkISyh/c0iKgQ/w9wdDNciaoYVBXovWjbz2T42cQ9X6nCl2XMZi8GlTUaQgf5axH
6RgTczjMbF9Iz8afMbh7SY2IukwxkWExIhk7APel5CDO86DWgQ59kPYORx616fYg
yV8n87uirNzM9Z2fzmIPgJsNBaUokH6fOOrj1n9SQo5iSLq3KAueFjTJj/1JxxNH
BjxO7yLJN7eNt/4I6odqehjo1HCYkqds20GQXAr+gHyCfeINb9Xn7mUjVMrcxHSt
YwIDAQABo4HwMIHtMB0GA1UdDgQWBBQCLNnJ2RKBWAjpLG/8FodRm5BnBzAfBgNV
HSMEGDAWgBQgSfc1PJok35HBcnKDatazM48QkjAJBgNVHRMEAjAAMAsGA1UdDwQE
AwIFoDARBglghkgBhvhCAQEEBAMCBsAwHQYDVR0lBBYwFAYIKwYBBQUHAwEGCCsG
AQUFBwMCMCsGCWCGSAGG+EIBDQQeFhxPcGVuU1NMIEdlbmVyYXRlZCBDZXJ0aWZp
Y2F0MDQGA1UdEQQtMCuGI2h0dHA6Ly9leGFtcGxlcy5mcmVlb3BjdWEuZ2l0aHVi
LmlvhwTAqFhkMA0GCSqGSIb3DQEBCwUAA4IBAQARgrRWf9VfSQgxhJktSsz8mf3X
fpD7gdorG2CQJjdiArIEUCrRAH1gIZrcrjpB6Pb5RV9iXmIBNrraz26sZqaZDcxH
vWUiZU/kkrd49lVvVq39AYerXmgmYWRJZxAm47Do5eEVko9RYdZHKsoIO3qr4YeG
ZyaaY59TFG3P6VvQmlvL3LLNj7cA7jQkjLdK13Mvc68z1dZ4ii5UQApoHDwujfYn
kdVRnqVCsxd9Zq8j3WVqwbiIO6ASupOFtGCVzZ35tyM5/xgUgzas658i9hqc64ME
sYodPD28G9pNKiA0/l7V5jgk6dI049dekRPuuJ9T8itSFZi1zAimyeCV0rsQ
-----END CERTIFICATE-----
-----BEGIN CERTIFICATE-----
MIIDxDCCAqygAwIBAgIUUYNYRGz0zH1j7LaCQguxI76RuucwDQYJKoZIhvcNAQEL
BQAwazELMAkGA1UEBhMCREUxCzAJBgNVBAgMAkJXMQwwCgYDVQQHDANGRFMxGjAY
BgNVBAoMEUNhbXB1c1NjaHdhcnp3YWxkMRMwEQYDVQQLDApIYWNrVGhlRmFiMRAw
DgYDVQQDDAdUZXN0IENBMB4XDTIyMDcxNTE0NDUzN1oXDTMyMDUyMzE0NDUzN1ow
azELMAkGA1UEBhMCREUxCzAJBgNVBAgMAkJXMQwwCgYDVQQHDANGRFMxGjAYBgNV
BAoMEUNhbXB1c1NjaHdhcnp3YWxkMRMwEQYDVQQLDApIYWNrVGhlRmFiMRAwDgYD
VQQDDAdUZXN0IENBMIIBIjANBgkqhkiG9w0BAQEFAAOCAQ8AMIIBCgKCAQEArsVy
Ulz0XHOtdnTm00HIVVD4glVXGQIzIMT4nE4TO8jNzodtE/2PBvCKepRwlETIds52
CvYia0lkdvrLzDJgjBUIJrXMXyuyWcTPocsfUFc3SehMpo0Lsdv89yJndb3NiM50
vLM77rExUumJU5EM8BaMS3QyBaQesXNzBkDLnApIR8pv9HDp/KAozEpLFCUnyFIe
snQ1xSgSnOTr2+hZVyEKUNSz1AXfG4wbfZRIo3l53UmnQdFYH+mBSEx5Ytk0ECex
+3lKeatP1BI8ii+v0nxoB780TxIRP7WrM2CK02tdVMsQdmDeO9vCYfCoZphcAjoW
WzLp/WoF7lmmtmE6IwIDAQABo2AwXjAdBgNVHQ4EFgQUIEn3NTyaJN+RwXJyg2rW
szOPEJIwHwYDVR0jBBgwFoAUIEn3NTyaJN+RwXJyg2rWszOPEJIwDwYDVR0TAQH/
BAUwAwEB/zALBgNVHQ8EBAMCAQYwDQYJKoZIhvcNAQELBQADggEBACusnWR/uj1j
ZN95BFTUsZcqdehWHI/ML61V94xR6Nz0MY7xI5mHkgqBeu34Rd1KpaASrYDXGRk/
XHi7A6lLNN0zlS0uZ1BYNEUQ6JBXbey1WVVnieX0nYG8Tziofl+tz/XVZD+t7+oi
NPXkZuLbxE4ZxS0biHsX230c0N+n2YuFhtvgBMEbmVVwMkwzE8BSoUrAFGTdicRY
SBhZ930cGKL502EN0LuKxUl/blWMB06pvB6I9ZkNaTexXzJ/iymqBOY/uxmPiAFC
q4ElAfeO0f+Kmzj13Up20U2+KZj3Tw86K/uy8xV286/zSW5UBszj3nVYjc2DqaRd
vPeP5CB6RW8=
-----END CERTIFICATE-----
