Certificate:
    Data:
        Version: 3 (0x2)
        Serial Number: 0 (0x0)
        Signature Algorithm: sha256WithRSAEncryption
        Issuer: C=DE, ST=BW, L=FDS, O=CampusSchwarzwald, OU=HackTheFab, CN=Test CA
        Validity
            Not Before: Jul 15 14:45:37 2022 GMT
            Not After : Nov 30 14:45:37 2049 GMT
        Subject: C=DE, ST=BW, L=FDS, O=CampusSchwarzwald, OU=OPCCLIENT, CN=192.168.88.100
        Subject Public Key Info:
            Public Key Algorithm: rsaEncryption
                Public-Key: (2048 bit)
                Modulus:
                    00:b1:46:e7:0b:a9:0a:7a:16:3a:03:a5:9d:c2:6b:
                    3b:e6:e8:6d:d0:ee:2d:16:a7:c1:20:28:4b:75:82:
                    39:da:1b:22:7d:cb:f4:a7:af:18:7c:e3:86:a5:1a:
                    33:51:80:4c:27:26:c6:dd:24:c8:58:4a:1f:74:ff:
                    8e:ac:d7:63:9d:94:1c:11:9b:93:bd:f7:e4:48:50:
                    9e:6f:ed:2c:db:04:01:67:0f:38:39:3b:8a:58:46:
                    70:69:b7:94:4b:c6:a0:fe:77:94:3a:f1:1a:8d:e7:
                    4f:1e:40:a1:bf:4c:33:a7:6c:5e:5a:ce:58:9f:52:
                    d3:4e:0f:b2:40:d6:67:6e:e8:d3:67:c0:d0:81:99:
                    5a:9e:0a:29:b2:ce:ec:78:bc:41:c0:d8:77:a5:76:
                    2f:af:2a:90:32:5d:7e:ff:8f:63:80:8b:e9:45:50:
                    51:7f:28:c8:01:4a:96:a9:b6:57:d8:08:dc:1d:db:
                    8a:d3:64:9e:13:2f:eb:4f:84:09:2b:ba:4c:3d:d3:
                    d2:dd:64:4e:03:12:29:c1:8a:46:96:3e:7c:9d:6d:
                    5c:01:38:87:0b:62:0b:a3:2c:4c:00:1d:76:6e:1d:
                    0f:3a:5f:6a:81:72:fb:a4:ec:7e:d8:3b:87:6e:1f:
                    54:94:0e:11:66:69:b0:93:fb:8c:8b:23:59:c6:87:
                    fc:5d
                Exponent: 65537 (0x10001)
        X509v3 extensions:
            X509v3 Subject Key Identifier: 
                02:FD:F7:8C:35:FB:E5:45:D1:40:CE:D4:7F:F6:8A:C4:B8:1B:14:4C
            X509v3 Authority Key Identifier: 
                20:49:F7:35:3C:9A:24:DF:91:C1:72:72:83:6A:D6:B3:33:8F:10:92
            X509v3 Basic Constraints: 
                CA:FALSE
            X509v3 Key Usage: 
                Digital Signature, Key Encipherment
            Netscape Cert Type: 
                SSL Client, SSL Server
            X509v3 Extended Key Usage: 
                TLS Web Server Authentication, TLS Web Client Authentication
            Netscape Comment: 
                OpenSSL Generated Certificat
            X509v3 Subject Alternative Name: 
                URI:http://examples.freeopcua.github.io, IP Address:192.168.88.100
    Signature Algorithm: sha256WithRSAEncryption
    Signature Value:
        4b:bd:67:92:d6:fd:69:5a:17:2f:e4:71:5d:0b:bc:f9:3d:a4:
        96:d6:db:80:b1:3d:28:45:10:52:29:cd:d5:0c:7b:d1:d0:80:
        04:66:5d:95:97:ff:e7:a6:34:79:73:49:04:28:52:31:0c:a0:
        f7:f1:66:ab:dd:12:00:ed:1c:09:39:d0:9e:12:b4:4a:4c:b8:
        7d:37:69:17:57:01:e3:49:37:ab:ee:e9:74:50:97:27:6d:3a:
        21:0f:b7:52:9f:53:32:f9:b7:6c:ac:e4:86:59:ca:95:6b:d8:
        68:3c:29:dd:1c:c9:81:0b:45:a8:a8:6b:8e:49:c0:b7:ff:02:
        2b:ea:75:eb:8e:79:43:f5:43:1e:29:b8:4e:4e:5a:96:c8:bc:
        f1:3e:91:fe:96:6b:ec:b5:c6:03:7c:b4:82:8b:0d:47:7f:f9:
        94:c1:77:e8:21:d5:da:a7:81:ca:ab:ef:8b:a5:43:79:99:9d:
        97:f9:70:7e:d5:52:ab:19:a8:47:a4:8a:01:30:4d:f1:94:53:
        c9:11:44:93:0e:d8:53:4a:e5:12:25:a0:ee:5d:9c:68:cb:de:
        31:c0:9a:50:10:00:73:f6:6b:94:5e:f5:74:7c:be:cc:0b:be:
        97:e3:7e:e7:1e:60:b3:b4:39:92:b7:74:d4:92:11:55:e3:a9:
        dd:db:ba:1c
-----BEGIN CERTIFICATE-----
MIIESDCCAzCgAwIBAgIBADANBgkqhkiG9w0BAQsFADBrMQswCQYDVQQGEwJERTEL
MAkGA1UECAwCQlcxDDAKBgNVBAcMA0ZEUzEaMBgGA1UECgwRQ2FtcHVzU2Nod2Fy
endhbGQxEzARBgNVBAsMCkhhY2tUaGVGYWIxEDAOBgNVBAMMB1Rlc3QgQ0EwHhcN
MjIwNzE1MTQ0NTM3WhcNNDkxMTMwMTQ0NTM3WjBxMQswCQYDVQQGEwJERTELMAkG
A1UECAwCQlcxDDAKBgNVBAcMA0ZEUzEaMBgGA1UECgwRQ2FtcHVzU2Nod2Fyendh
bGQxEjAQBgNVBAsMCU9QQ0NMSUVOVDEXMBUGA1UEAwwOMTkyLjE2OC44OC4xMDAw
ggEiMA0GCSqGSIb3DQEBAQUAA4IBDwAwggEKAoIBAQCxRucLqQp6FjoDpZ3Cazvm
6G3Q7i0Wp8EgKEt1gjnaGyJ9y/Snrxh844alGjNRgEwnJsbdJMhYSh90/46s12Od
lBwRm5O99+RIUJ5v7SzbBAFnDzg5O4pYRnBpt5RLxqD+d5Q68RqN508eQKG/TDOn
bF5azlifUtNOD7JA1mdu6NNnwNCBmVqeCimyzux4vEHA2Heldi+vKpAyXX7/j2OA
i+lFUFF/KMgBSpaptlfYCNwd24rTZJ4TL+tPhAkrukw909LdZE4DEinBikaWPnyd
bVwBOIcLYgujLEwAHXZuHQ86X2qBcvuk7H7YO4duH1SUDhFmabCT+4yLI1nGh/xd
AgMBAAGjgfAwge0wHQYDVR0OBBYEFAL994w1++VF0UDO1H/2isS4GxRMMB8GA1Ud
IwQYMBaAFCBJ9zU8miTfkcFycoNq1rMzjxCSMAkGA1UdEwQCMAAwCwYDVR0PBAQD
AgWgMBEGCWCGSAGG+EIBAQQEAwIGwDAdBgNVHSUEFjAUBggrBgEFBQcDAQYIKwYB
BQUHAwIwKwYJYIZIAYb4QgENBB4WHE9wZW5TU0wgR2VuZXJhdGVkIENlcnRpZmlj
YXQwNAYDVR0RBC0wK4YjaHR0cDovL2V4YW1wbGVzLmZyZWVvcGN1YS5naXRodWIu
aW+HBMCoWGQwDQYJKoZIhvcNAQELBQADggEBAEu9Z5LW/WlaFy/kcV0LvPk9pJbW
24CxPShFEFIpzdUMe9HQgARmXZWX/+emNHlzSQQoUjEMoPfxZqvdEgDtHAk50J4S
tEpMuH03aRdXAeNJN6vu6XRQlydtOiEPt1KfUzL5t2ys5IZZypVr2Gg8Kd0cyYEL
Raioa45JwLf/AivqdeuOeUP1Qx4puE5OWpbIvPE+kf6Wa+y1xgN8tIKLDUd/+ZTB
d+gh1dqngcqr74ulQ3mZnZf5cH7VUqsZqEekigEwTfGUU8kRRJMO2FNK5RIloO5d
nGjL3jHAmlAQAHP2a5Re9XR8vswLvpfjfuceYLO0OZK3dNSSEVXjqd3buhw=
-----END CERTIFICATE-----
