Certificate:
    Data:
        Version: 3 (0x2)
        Serial Number: 1 (0x1)
        Signature Algorithm: sha256WithRSAEncryption
        Issuer: C=DE, ST=BW, L=FDS, O=CampusSchwarzwald, OU=HackTheFab, CN=Test CA
        Validity
            Not Before: Jul 15 14:45:40 2022 GMT
            Not After : Nov 30 14:45:40 2049 GMT
        Subject: C=DE, ST=BW, L=FDS, O=CampusSchwarzwald, OU=OPCSERVER, CN=192.168.88.101
        Subject Public Key Info:
            Public Key Algorithm: rsaEncryption
                Public-Key: (2048 bit)
                Modulus:
                    00:aa:49:5a:d1:cb:e2:a4:d3:c9:81:bb:63:c0:19:
                    c1:d5:70:51:cc:64:3d:f8:db:72:63:c3:fc:8c:21:
                    fd:a4:3b:db:da:c8:06:50:30:f3:a8:90:fe:ee:0d:
                    e2:b7:80:9a:fc:a2:7d:91:14:23:28:71:96:8a:a1:
                    e5:4c:e2:69:16:01:47:ca:79:a5:21:d6:bb:6b:2f:
                    45:35:33:08:37:74:38:a6:3b:05:38:a5:9b:8b:72:
                    e6:0e:19:9c:cc:36:d4:7c:5f:8d:06:c5:75:a5:3c:
                    83:de:9d:9a:66:1c:66:b0:ca:9c:fa:e6:27:d5:b7:
                    14:49:85:ce:4b:20:db:78:a0:e5:cd:97:18:c9:19:
                    ea:6c:42:cd:bc:13:d8:32:f8:c1:a7:70:c3:0c:0d:
                    f1:7f:9c:b2:2d:4a:4c:be:9d:a4:2e:dc:f0:f1:be:
                    45:87:bc:bf:07:ec:3d:a2:77:b7:94:6c:38:4a:24:
                    ce:29:d1:ad:1a:6c:93:d7:b7:fd:5e:65:9e:3b:4f:
                    67:20:d0:2f:77:d6:e8:e9:06:71:8d:9f:da:bc:22:
                    56:3f:99:b1:34:c5:d5:71:7b:7b:4a:2d:49:b5:03:
                    e3:b1:24:5b:4f:a7:da:0e:a5:4a:f1:91:dd:5c:36:
                    49:89:e1:c4:09:96:5b:38:32:ff:72:f3:b3:09:fb:
                    bc:21
                Exponent: 65537 (0x10001)
        X509v3 extensions:
            X509v3 Subject Key Identifier: 
                DD:34:5C:F1:FA:0F:8B:5F:16:67:BB:29:B1:1F:3D:7F:4C:68:6B:90
            X509v3 Authority Key Identifier: 
                20:49:F7:35:3C:9A:24:DF:91:C1:72:72:83:6A:D6:B3:33:8F:10:92
            X509v3 Basic Constraints: 
                CA:FALSE
            X509v3 Key Usage: 
                Digital Signature, Key Encipherment
            Netscape Cert Type: 
                SSL Client, SSL Server
            X509v3 Extended Key Usage: 
                TLS Web Server Authentication, TLS Web Client Authentication
            Netscape Comment: 
                OpenSSL Generated Certificat
            X509v3 Subject Alternative Name: 
                URI:http://examples.freeopcua.github.io, IP Address:192.168.88.101
    Signature Algorithm: sha256WithRSAEncryption
    Signature Value:
        66:c2:a8:8b:79:d6:2f:6c:3e:c3:9e:38:da:c1:ff:cf:d1:45:
        2f:01:09:e2:b1:9c:27:7c:12:c4:da:e8:fd:75:9e:47:f7:e1:
        d1:bb:34:c1:13:de:a8:76:b6:6d:0e:82:e9:91:f7:af:56:8e:
        65:a9:7a:2f:c3:d6:59:ce:1e:cd:ef:23:47:c7:4e:a1:82:f1:
        d3:5c:20:f3:73:6f:44:cb:66:f1:73:c9:76:63:05:40:d2:76:
        7c:d0:05:86:67:38:fd:2d:6c:33:fd:fd:24:15:3e:71:e5:22:
        6e:16:cf:28:de:cf:99:28:88:b9:73:54:9d:9c:d5:cf:a6:2f:
        7f:34:58:51:fd:16:db:bc:47:bc:d8:64:9a:0f:ef:e3:44:3c:
        03:b6:bb:54:d8:22:20:ba:1c:fd:ac:49:9b:e6:03:47:07:46:
        c5:aa:bb:36:d2:ae:6d:e9:60:92:05:09:8d:64:bd:fa:eb:60:
        36:f0:f9:8c:42:3c:16:6f:7c:a1:e4:86:0a:eb:60:4c:65:d0:
        e7:fd:32:db:a3:d1:2d:8d:b1:02:7e:79:8c:2f:a1:96:9a:93:
        da:0d:d3:73:9b:d8:7f:e9:65:ce:a7:f2:28:1e:d6:ce:49:d1:
        ae:76:7b:e6:e2:39:01:10:29:ef:11:25:32:9b:2f:4b:cf:94:
        13:43:71:b3
-----BEGIN CERTIFICATE-----
MIIESDCCAzCgAwIBAgIBATANBgkqhkiG9w0BAQsFADBrMQswCQYDVQQGEwJERTEL
MAkGA1UECAwCQlcxDDAKBgNVBAcMA0ZEUzEaMBgGA1UECgwRQ2FtcHVzU2Nod2Fy
endhbGQxEzARBgNVBAsMCkhhY2tUaGVGYWIxEDAOBgNVBAMMB1Rlc3QgQ0EwHhcN
MjIwNzE1MTQ0NTQwWhcNNDkxMTMwMTQ0NTQwWjBxMQswCQYDVQQGEwJERTELMAkG
A1UECAwCQlcxDDAKBgNVBAcMA0ZEUzEaMBgGA1UECgwRQ2FtcHVzU2Nod2Fyendh
bGQxEjAQBgNVBAsMCU9QQ1NFUlZFUjEXMBUGA1UEAwwOMTkyLjE2OC44OC4xMDEw
ggEiMA0GCSqGSIb3DQEBAQUAA4IBDwAwggEKAoIBAQCqSVrRy+Kk08mBu2PAGcHV
cFHMZD3423Jjw/yMIf2kO9vayAZQMPOokP7uDeK3gJr8on2RFCMocZaKoeVM4mkW
AUfKeaUh1rtrL0U1Mwg3dDimOwU4pZuLcuYOGZzMNtR8X40GxXWlPIPenZpmHGaw
ypz65ifVtxRJhc5LINt4oOXNlxjJGepsQs28E9gy+MGncMMMDfF/nLItSky+naQu
3PDxvkWHvL8H7D2id7eUbDhKJM4p0a0abJPXt/1eZZ47T2cg0C931ujpBnGNn9q8
IlY/mbE0xdVxe3tKLUm1A+OxJFtPp9oOpUrxkd1cNkmJ4cQJlls4Mv9y87MJ+7wh
AgMBAAGjgfAwge0wHQYDVR0OBBYEFN00XPH6D4tfFme7KbEfPX9MaGuQMB8GA1Ud
IwQYMBaAFCBJ9zU8miTfkcFycoNq1rMzjxCSMAkGA1UdEwQCMAAwCwYDVR0PBAQD
AgWgMBEGCWCGSAGG+EIBAQQEAwIGwDAdBgNVHSUEFjAUBggrBgEFBQcDAQYIKwYB
BQUHAwIwKwYJYIZIAYb4QgENBB4WHE9wZW5TU0wgR2VuZXJhdGVkIENlcnRpZmlj
YXQwNAYDVR0RBC0wK4YjaHR0cDovL2V4YW1wbGVzLmZyZWVvcGN1YS5naXRodWIu
aW+HBMCoWGUwDQYJKoZIhvcNAQELBQADggEBAGbCqIt51i9sPsOeONrB/8/RRS8B
CeKxnCd8EsTa6P11nkf34dG7NMET3qh2tm0OgumR969WjmWpei/D1lnOHs3vI0fH
TqGC8dNcIPNzb0TLZvFzyXZjBUDSdnzQBYZnOP0tbDP9/SQVPnHlIm4Wzyjez5ko
iLlzVJ2c1c+mL380WFH9Ftu8R7zYZJoP7+NEPAO2u1TYIiC6HP2sSZvmA0cHRsWq
uzbSrm3pYJIFCY1kvfrrYDbw+YxCPBZvfKHkhgrrYExl0Of9Mtuj0S2NsQJ+eYwv
oZaak9oN03Ob2H/pZc6n8ige1s5J0a52e+biOQEQKe8RJTKbL0vPlBNDcbM=
-----END CERTIFICATE-----
-----BEGIN CERTIFICATE-----
MIIDxDCCAqygAwIBAgIUUYNYRGz0zH1j7LaCQguxI76RuucwDQYJKoZIhvcNAQEL
BQAwazELMAkGA1UEBhMCREUxCzAJBgNVBAgMAkJXMQwwCgYDVQQHDANGRFMxGjAY
BgNVBAoMEUNhbXB1c1NjaHdhcnp3YWxkMRMwEQYDVQQLDApIYWNrVGhlRmFiMRAw
DgYDVQQDDAdUZXN0IENBMB4XDTIyMDcxNTE0NDUzN1oXDTMyMDUyMzE0NDUzN1ow
azELMAkGA1UEBhMCREUxCzAJBgNVBAgMAkJXMQwwCgYDVQQHDANGRFMxGjAYBgNV
BAoMEUNhbXB1c1NjaHdhcnp3YWxkMRMwEQYDVQQLDApIYWNrVGhlRmFiMRAwDgYD
VQQDDAdUZXN0IENBMIIBIjANBgkqhkiG9w0BAQEFAAOCAQ8AMIIBCgKCAQEArsVy
Ulz0XHOtdnTm00HIVVD4glVXGQIzIMT4nE4TO8jNzodtE/2PBvCKepRwlETIds52
CvYia0lkdvrLzDJgjBUIJrXMXyuyWcTPocsfUFc3SehMpo0Lsdv89yJndb3NiM50
vLM77rExUumJU5EM8BaMS3QyBaQesXNzBkDLnApIR8pv9HDp/KAozEpLFCUnyFIe
snQ1xSgSnOTr2+hZVyEKUNSz1AXfG4wbfZRIo3l53UmnQdFYH+mBSEx5Ytk0ECex
+3lKeatP1BI8ii+v0nxoB780TxIRP7WrM2CK02tdVMsQdmDeO9vCYfCoZphcAjoW
WzLp/WoF7lmmtmE6IwIDAQABo2AwXjAdBgNVHQ4EFgQUIEn3NTyaJN+RwXJyg2rW
szOPEJIwHwYDVR0jBBgwFoAUIEn3NTyaJN+RwXJyg2rWszOPEJIwDwYDVR0TAQH/
BAUwAwEB/zALBgNVHQ8EBAMCAQYwDQYJKoZIhvcNAQELBQADggEBACusnWR/uj1j
ZN95BFTUsZcqdehWHI/ML61V94xR6Nz0MY7xI5mHkgqBeu34Rd1KpaASrYDXGRk/
XHi7A6lLNN0zlS0uZ1BYNEUQ6JBXbey1WVVnieX0nYG8Tziofl+tz/XVZD+t7+oi
NPXkZuLbxE4ZxS0biHsX230c0N+n2YuFhtvgBMEbmVVwMkwzE8BSoUrAFGTdicRY
SBhZ930cGKL502EN0LuKxUl/blWMB06pvB6I9ZkNaTexXzJ/iymqBOY/uxmPiAFC
q4ElAfeO0f+Kmzj13Up20U2+KZj3Tw86K/uy8xV286/zSW5UBszj3nVYjc2DqaRd
vPeP5CB6RW8=
-----END CERTIFICATE-----
